target datalayout = "e-m:e-p270:32:32-p271:32:32-p272:64:64-i64:64-f80:128-n8:16:32:64-S128"
target triple = "x86_64-pc-linux-gnu"

%struct.anon = type { i32, [26 x i8] }

@.str = private unnamed_addr constant [3 x i8] c"%d\00", align 1
@.str.1 = private unnamed_addr constant [6 x i8] c"%d %s\00", align 1
@.str.2 = private unnamed_addr constant [7 x i8] c"%c\0A%d\0A\00", align 1
@.str.3 = private unnamed_addr constant [4 x i8] c"%d\0A\00", align 1

; Function Attrs: noinline nounwind uwtable
define dso_local i32 @main() #0 {
  %1 = alloca i32, align 4
  %2 = alloca [1000 x %struct.anon], align 16
  %3 = alloca [26 x i32], align 16
  %4 = alloca i32, align 4
  %5 = alloca i32, align 4
  %6 = alloca i32, align 4
  %7 = alloca i32, align 4
  %8 = alloca i32, align 4
  %9 = alloca i32, align 4
  %10 = alloca i8, align 1
  store i32 0, i32* %1, align 4
  %11 = call i32 (i8*, ...) @__isoc99_scanf(i8* getelementptr inbounds ([3 x i8], [3 x i8]* @.str, i64 0, i64 0), i32* %7)
  store i32 0, i32* %4, align 4
  br label %12

12:                                               ; preds = %27, %0
  %13 = load i32, i32* %4, align 4
  %14 = load i32, i32* %7, align 4
  %15 = icmp slt i32 %13, %14
  br i1 %15, label %16, label %30

16:                                               ; preds = %12
  %17 = load i32, i32* %4, align 4
  %18 = sext i32 %17 to i64
  %19 = getelementptr inbounds [1000 x %struct.anon], [1000 x %struct.anon]* %2, i64 0, i64 %18
  %20 = getelementptr inbounds %struct.anon, %struct.anon* %19, i32 0, i32 0
  %21 = load i32, i32* %4, align 4
  %22 = sext i32 %21 to i64
  %23 = getelementptr inbounds [1000 x %struct.anon], [1000 x %struct.anon]* %2, i64 0, i64 %22
  %24 = getelementptr inbounds %struct.anon, %struct.anon* %23, i32 0, i32 1
  %25 = getelementptr inbounds [26 x i8], [26 x i8]* %24, i64 0, i64 0
  %26 = call i32 (i8*, ...) @__isoc99_scanf(i8* getelementptr inbounds ([6 x i8], [6 x i8]* @.str.1, i64 0, i64 0), i32* %20, i8* %25)
  br label %27

27:                                               ; preds = %16
  %28 = load i32, i32* %4, align 4
  %29 = add nsw i32 %28, 1
  store i32 %29, i32* %4, align 4
  br label %12

30:                                               ; preds = %12
  store i32 0, i32* %6, align 4
  br label %31

31:                                               ; preds = %38, %30
  %32 = load i32, i32* %6, align 4
  %33 = icmp slt i32 %32, 26
  br i1 %33, label %34, label %41

34:                                               ; preds = %31
  %35 = load i32, i32* %6, align 4
  %36 = sext i32 %35 to i64
  %37 = getelementptr inbounds [26 x i32], [26 x i32]* %3, i64 0, i64 %36
  store i32 0, i32* %37, align 4
  br label %38

38:                                               ; preds = %34
  %39 = load i32, i32* %6, align 4
  %40 = add nsw i32 %39, 1
  store i32 %40, i32* %6, align 4
  br label %31

41:                                               ; preds = %31
  store i32 0, i32* %6, align 4
  br label %42

42:                                               ; preds = %90, %41
  %43 = load i32, i32* %6, align 4
  %44 = icmp slt i32 %43, 26
  br i1 %44, label %45, label %93

45:                                               ; preds = %42
  store i32 0, i32* %4, align 4
  br label %46

46:                                               ; preds = %86, %45
  %47 = load i32, i32* %4, align 4
  %48 = load i32, i32* %7, align 4
  %49 = icmp slt i32 %47, %48
  br i1 %49, label %50, label %89

50:                                               ; preds = %46
  %51 = load i32, i32* %4, align 4
  %52 = sext i32 %51 to i64
  %53 = getelementptr inbounds [1000 x %struct.anon], [1000 x %struct.anon]* %2, i64 0, i64 %52
  %54 = getelementptr inbounds %struct.anon, %struct.anon* %53, i32 0, i32 1
  %55 = getelementptr inbounds [26 x i8], [26 x i8]* %54, i64 0, i64 0
  %56 = call i64 @strlen(i8* %55) #3
  %57 = trunc i64 %56 to i32
  store i32 %57, i32* %9, align 4
  store i32 0, i32* %5, align 4
  br label %58

58:                                               ; preds = %82, %50
  %59 = load i32, i32* %5, align 4
  %60 = load i32, i32* %9, align 4
  %61 = icmp slt i32 %59, %60
  br i1 %61, label %62, label %85

62:                                               ; preds = %58
  %63 = load i32, i32* %4, align 4
  %64 = sext i32 %63 to i64
  %65 = getelementptr inbounds [1000 x %struct.anon], [1000 x %struct.anon]* %2, i64 0, i64 %64
  %66 = getelementptr inbounds %struct.anon, %struct.anon* %65, i32 0, i32 1
  %67 = load i32, i32* %5, align 4
  %68 = sext i32 %67 to i64
  %69 = getelementptr inbounds [26 x i8], [26 x i8]* %66, i64 0, i64 %68
  %70 = load i8, i8* %69, align 1
  %71 = sext i8 %70 to i32
  %72 = load i32, i32* %6, align 4
  %73 = add nsw i32 65, %72
  %74 = icmp eq i32 %71, %73
  br i1 %74, label %75, label %81

75:                                               ; preds = %62
  %76 = load i32, i32* %6, align 4
  %77 = sext i32 %76 to i64
  %78 = getelementptr inbounds [26 x i32], [26 x i32]* %3, i64 0, i64 %77
  %79 = load i32, i32* %78, align 4
  %80 = add nsw i32 %79, 1
  store i32 %80, i32* %78, align 4
  br label %81

81:                                               ; preds = %75, %62
  br label %82

82:                                               ; preds = %81
  %83 = load i32, i32* %5, align 4
  %84 = add nsw i32 %83, 1
  store i32 %84, i32* %5, align 4
  br label %58

85:                                               ; preds = %58
  br label %86

86:                                               ; preds = %85
  %87 = load i32, i32* %4, align 4
  %88 = add nsw i32 %87, 1
  store i32 %88, i32* %4, align 4
  br label %46

89:                                               ; preds = %46
  br label %90

90:                                               ; preds = %89
  %91 = load i32, i32* %6, align 4
  %92 = add nsw i32 %91, 1
  store i32 %92, i32* %6, align 4
  br label %42

93:                                               ; preds = %42
  %94 = getelementptr inbounds [26 x i32], [26 x i32]* %3, i64 0, i64 0
  %95 = load i32, i32* %94, align 16
  store i32 %95, i32* %8, align 4
  store i8 65, i8* %10, align 1
  store i32 0, i32* %6, align 4
  br label %96

96:                                               ; preds = %115, %93
  %97 = load i32, i32* %6, align 4
  %98 = icmp slt i32 %97, 26
  br i1 %98, label %99, label %118

99:                                               ; preds = %96
  %100 = load i32, i32* %6, align 4
  %101 = sext i32 %100 to i64
  %102 = getelementptr inbounds [26 x i32], [26 x i32]* %3, i64 0, i64 %101
  %103 = load i32, i32* %102, align 4
  %104 = load i32, i32* %8, align 4
  %105 = icmp sgt i32 %103, %104
  br i1 %105, label %106, label %114

106:                                              ; preds = %99
  %107 = load i32, i32* %6, align 4
  %108 = sext i32 %107 to i64
  %109 = getelementptr inbounds [26 x i32], [26 x i32]* %3, i64 0, i64 %108
  %110 = load i32, i32* %109, align 4
  store i32 %110, i32* %8, align 4
  %111 = load i32, i32* %6, align 4
  %112 = add nsw i32 65, %111
  %113 = trunc i32 %112 to i8
  store i8 %113, i8* %10, align 1
  br label %114

114:                                              ; preds = %106, %99
  br label %115

115:                                              ; preds = %114
  %116 = load i32, i32* %6, align 4
  %117 = add nsw i32 %116, 1
  store i32 %117, i32* %6, align 4
  br label %96

118:                                              ; preds = %96
  %119 = load i8, i8* %10, align 1
  %120 = sext i8 %119 to i32
  %121 = load i32, i32* %8, align 4
  %122 = call i32 (i8*, ...) @printf(i8* getelementptr inbounds ([7 x i8], [7 x i8]* @.str.2, i64 0, i64 0), i32 %120, i32 %121)
  store i32 0, i32* %4, align 4
  br label %123

123:                                              ; preds = %164, %118
  %124 = load i32, i32* %4, align 4
  %125 = load i32, i32* %7, align 4
  %126 = icmp slt i32 %124, %125
  br i1 %126, label %127, label %167

127:                                              ; preds = %123
  %128 = load i32, i32* %4, align 4
  %129 = sext i32 %128 to i64
  %130 = getelementptr inbounds [1000 x %struct.anon], [1000 x %struct.anon]* %2, i64 0, i64 %129
  %131 = getelementptr inbounds %struct.anon, %struct.anon* %130, i32 0, i32 1
  %132 = getelementptr inbounds [26 x i8], [26 x i8]* %131, i64 0, i64 0
  %133 = call i64 @strlen(i8* %132) #3
  %134 = trunc i64 %133 to i32
  store i32 %134, i32* %9, align 4
  store i32 0, i32* %5, align 4
  br label %135

135:                                              ; preds = %160, %127
  %136 = load i32, i32* %5, align 4
  %137 = load i32, i32* %9, align 4
  %138 = icmp slt i32 %136, %137
  br i1 %138, label %139, label %163

139:                                              ; preds = %135
  %140 = load i32, i32* %4, align 4
  %141 = sext i32 %140 to i64
  %142 = getelementptr inbounds [1000 x %struct.anon], [1000 x %struct.anon]* %2, i64 0, i64 %141
  %143 = getelementptr inbounds %struct.anon, %struct.anon* %142, i32 0, i32 1
  %144 = load i32, i32* %5, align 4
  %145 = sext i32 %144 to i64
  %146 = getelementptr inbounds [26 x i8], [26 x i8]* %143, i64 0, i64 %145
  %147 = load i8, i8* %146, align 1
  %148 = sext i8 %147 to i32
  %149 = load i8, i8* %10, align 1
  %150 = sext i8 %149 to i32
  %151 = icmp eq i32 %148, %150
  br i1 %151, label %152, label %159

152:                                              ; preds = %139
  %153 = load i32, i32* %4, align 4
  %154 = sext i32 %153 to i64
  %155 = getelementptr inbounds [1000 x %struct.anon], [1000 x %struct.anon]* %2, i64 0, i64 %154
  %156 = getelementptr inbounds %struct.anon, %struct.anon* %155, i32 0, i32 0
  %157 = load i32, i32* %156, align 16
  %158 = call i32 (i8*, ...) @printf(i8* getelementptr inbounds ([4 x i8], [4 x i8]* @.str.3, i64 0, i64 0), i32 %157)
  br label %159

159:                                              ; preds = %152, %139
  br label %160

160:                                              ; preds = %159
  %161 = load i32, i32* %5, align 4
  %162 = add nsw i32 %161, 1
  store i32 %162, i32* %5, align 4
  br label %135

163:                                              ; preds = %135
  br label %164

164:                                              ; preds = %163
  %165 = load i32, i32* %4, align 4
  %166 = add nsw i32 %165, 1
  store i32 %166, i32* %4, align 4
  br label %123

167:                                              ; preds = %123
  ret i32 0
}